target datalayout = "e-m:e-p270:32:32-p271:32:32-p272:64:64-i64:64-i128:128-f80:128-n8:16:32:64-S128"
target triple = "x86_64-pc-linux-gnu"

%struct.AVFilterLink = type { ptr, ptr, ptr, ptr, i32, i32, i32, i32, %struct.AVRational, i32, i32, i32, %struct.AVChannelLayout, %struct.AVRational, ptr, i32, %struct.AVFilterFormatsConfig, %struct.AVFilterFormatsConfig }
%struct.AVChannelLayout = type { i32, i32, %union.anon.1, ptr }
%union.anon.1 = type { i64 }
%struct.AVRational = type { i32, i32 }
%struct.AVFilterFormatsConfig = type { ptr, ptr, ptr, ptr, ptr }
%struct.AVFilterContext = type { ptr, ptr, ptr, ptr, ptr, i32, ptr, ptr, i32, ptr, ptr, i32, i32, ptr, ptr, ptr, ptr, i32, ptr, i32, i32 }
%struct.FlipContext = type { i32, i32 }
%struct.AVFrame = type { [8 x ptr], [8 x i32], ptr, i32, i32, i32, i32, i32, %struct.AVRational, i64, i64, %struct.AVRational, i32, ptr, i32, i32, [8 x ptr], ptr, i32, ptr, i32, i32, i32, i32, i32, i32, i32, i64, ptr, i32, ptr, ptr, i64, i64, i64, i64, ptr, %struct.AVChannelLayout, i64 }

; Function Attrs: nounwind uwtable
define internal ptr @get_video_buffer(ptr noundef %0, i32 noundef %1, i32 noundef %2) #0 {
  %4 = alloca ptr, align 8
  %5 = alloca ptr, align 8
  %6 = alloca i32, align 4
  %7 = alloca i32, align 4
  %8 = alloca ptr, align 8
  %9 = alloca ptr, align 8
  %10 = alloca i32, align 4
  %11 = alloca i32, align 4
  %12 = alloca i32, align 4
  %13 = alloca i32, align 4
  store ptr %0, ptr %5, align 8, !tbaa !4
  store i32 %1, ptr %6, align 4, !tbaa !9
  store i32 %2, ptr %7, align 4, !tbaa !9
  call void @llvm.lifetime.start.p0(i64 8, ptr %8) #5
  %14 = load ptr, ptr %5, align 8, !tbaa !4
  %15 = getelementptr inbounds nuw %struct.AVFilterLink, ptr %14, i32 0, i32 2
  %16 = load ptr, ptr %15, align 8, !tbaa !11
  %17 = getelementptr inbounds nuw %struct.AVFilterContext, ptr %16, i32 0, i32 9
  %18 = load ptr, ptr %17, align 8, !tbaa !22
  store ptr %18, ptr %8, align 8, !tbaa !32
  call void @llvm.lifetime.start.p0(i64 8, ptr %9) #5
  call void @llvm.lifetime.start.p0(i64 4, ptr %10) #5
  %19 = load ptr, ptr %5, align 8, !tbaa !4
  %20 = getelementptr inbounds nuw %struct.AVFilterLink, ptr %19, i32 0, i32 2
  %21 = load ptr, ptr %20, align 8, !tbaa !11
  %22 = getelementptr inbounds nuw %struct.AVFilterContext, ptr %21, i32 0, i32 7
  %23 = load ptr, ptr %22, align 8, !tbaa !34
  %24 = getelementptr inbounds ptr, ptr %23, i64 0
  %25 = load ptr, ptr %24, align 8, !tbaa !4
  %26 = load i32, ptr %6, align 4, !tbaa !9
  %27 = load i32, ptr %7, align 4, !tbaa !9
  %28 = call ptr @ff_get_video_buffer(ptr noundef %25, i32 noundef %26, i32 noundef %27)
  store ptr %28, ptr %9, align 8, !tbaa !35
  %29 = load ptr, ptr %9, align 8, !tbaa !35
  %30 = icmp ne ptr %29, null
  br i1 %30, label %32, label %31

31:                                               ; preds = %3
  store ptr null, ptr %4, align 8
  store i32 1, ptr %11, align 4
  br label %110

32:                                               ; preds = %3
  store i32 0, ptr %10, align 4, !tbaa !9
  br label %33

33:                                               ; preds = %105, %32
  %34 = load i32, ptr %10, align 4, !tbaa !9
  %35 = icmp slt i32 %34, 4
  br i1 %35, label %36, label %108

36:                                               ; preds = %33
  call void @llvm.lifetime.start.p0(i64 4, ptr %12) #5
  %37 = load i32, ptr %10, align 4, !tbaa !9
  %38 = icmp eq i32 %37, 1
  br i1 %38, label %42, label %39

39:                                               ; preds = %36
  %40 = load i32, ptr %10, align 4, !tbaa !9
  %41 = icmp eq i32 %40, 2
  br i1 %41, label %42, label %46

42:                                               ; preds = %39, %36
  %43 = load ptr, ptr %8, align 8, !tbaa !32
  %44 = getelementptr inbounds nuw %struct.FlipContext, ptr %43, i32 0, i32 0
  %45 = load i32, ptr %44, align 4, !tbaa !37
  br label %47

46:                                               ; preds = %39
  br label %47

47:                                               ; preds = %46, %42
  %48 = phi i32 [ %45, %42 ], [ 0, %46 ]
  store i32 %48, ptr %12, align 4, !tbaa !9
  call void @llvm.lifetime.start.p0(i64 4, ptr %13) #5
  %49 = load i32, ptr %12, align 4, !tbaa !9
  %50 = call i1 @llvm.is.constant.i32(i32 %49)
  br i1 %50, label %57, label %51

51:                                               ; preds = %47
  %52 = load i32, ptr %7, align 4, !tbaa !9
  %53 = sub nsw i32 0, %52
  %54 = load i32, ptr %12, align 4, !tbaa !9
  %55 = ashr i32 %53, %54
  %56 = sub nsw i32 0, %55
  br label %65

57:                                               ; preds = %47
  %58 = load i32, ptr %7, align 4, !tbaa !9
  %59 = load i32, ptr %12, align 4, !tbaa !9
  %60 = shl i32 1, %59
  %61 = add nsw i32 %58, %60
  %62 = sub nsw i32 %61, 1
  %63 = load i32, ptr %12, align 4, !tbaa !9
  %64 = ashr i32 %62, %63
  br label %65

65:                                               ; preds = %57, %51
  %66 = phi i32 [ %56, %51 ], [ %64, %57 ]
  store i32 %66, ptr %13, align 4, !tbaa !9
  %67 = load ptr, ptr %9, align 8, !tbaa !35
  %68 = getelementptr inbounds nuw %struct.AVFrame, ptr %67, i32 0, i32 0
  %69 = load i32, ptr %10, align 4, !tbaa !9
  %70 = sext i32 %69 to i64
  %71 = getelementptr inbounds [8 x ptr], ptr %68, i64 0, i64 %70
  %72 = load ptr, ptr %71, align 8, !tbaa !39
  %73 = icmp ne ptr %72, null
  br i1 %73, label %74, label %104

74:                                               ; preds = %65
  %75 = load i32, ptr %13, align 4, !tbaa !9
  %76 = sub nsw i32 %75, 1
  %77 = load ptr, ptr %9, align 8, !tbaa !35
  %78 = getelementptr inbounds nuw %struct.AVFrame, ptr %77, i32 0, i32 1
  %79 = load i32, ptr %10, align 4, !tbaa !9
  %80 = sext i32 %79 to i64
  %81 = getelementptr inbounds [8 x i32], ptr %78, i64 0, i64 %80
  %82 = load i32, ptr %81, align 4, !tbaa !9
  %83 = mul nsw i32 %76, %82
  %84 = load ptr, ptr %9, align 8, !tbaa !35
  %85 = getelementptr inbounds nuw %struct.AVFrame, ptr %84, i32 0, i32 0
  %86 = load i32, ptr %10, align 4, !tbaa !9
  %87 = sext i32 %86 to i64
  %88 = getelementptr inbounds [8 x ptr], ptr %85, i64 0, i64 %87
  %89 = load ptr, ptr %88, align 8, !tbaa !39
  %90 = sext i32 %83 to i64
  %91 = getelementptr inbounds i8, ptr %89, i64 %90
  store ptr %91, ptr %88, align 8, !tbaa !39
  %92 = load ptr, ptr %9, align 8, !tbaa !35
  %93 = getelementptr inbounds nuw %struct.AVFrame, ptr %92, i32 0, i32 1
  %94 = load i32, ptr %10, align 4, !tbaa !9
  %95 = sext i32 %94 to i64
  %96 = getelementptr inbounds [8 x i32], ptr %93, i64 0, i64 %95
  %97 = load i32, ptr %96, align 4, !tbaa !9
  %98 = sub nsw i32 0, %97
  %99 = load ptr, ptr %9, align 8, !tbaa !35
  %100 = getelementptr inbounds nuw %struct.AVFrame, ptr %99, i32 0, i32 1
  %101 = load i32, ptr %10, align 4, !tbaa !9
  %102 = sext i32 %101 to i64
  %103 = getelementptr inbounds [8 x i32], ptr %100, i64 0, i64 %102
  store i32 %98, ptr %103, align 4, !tbaa !9
  br label %104

104:                                              ; preds = %74, %65
  call void @llvm.lifetime.end.p0(i64 4, ptr %13) #5
  call void @llvm.lifetime.end.p0(i64 4, ptr %12) #5
  br label %105

105:                                              ; preds = %104
  %106 = load i32, ptr %10, align 4, !tbaa !9
  %107 = add nsw i32 %106, 1
  store i32 %107, ptr %10, align 4, !tbaa !9
  br label %33, !llvm.loop !40

108:                                              ; preds = %33
  %109 = load ptr, ptr %9, align 8, !tbaa !35
  store ptr %109, ptr %4, align 8
  store i32 1, ptr %11, align 4
  br label %110

110:                                              ; preds = %108, %31
  call void @llvm.lifetime.end.p0(i64 4, ptr %10) #5
  call void @llvm.lifetime.end.p0(i64 8, ptr %9) #5
  call void @llvm.lifetime.end.p0(i64 8, ptr %8) #5
  %111 = load ptr, ptr %4, align 8
  ret ptr %111
}