; Function Attrs: nounwind uwtable
define internal ptr @get_video_buffer(ptr noundef readonly captures(none) %0, i32 noundef %1, i32 noundef %2) #0 {
  %4 = getelementptr inbounds nuw i8, ptr %0, i64 16
  %5 = load ptr, ptr %4, align 8, !tbaa !4
  %6 = getelementptr inbounds nuw i8, ptr %5, i64 72
  %7 = load ptr, ptr %6, align 8, !tbaa !19
  %8 = getelementptr inbounds nuw i8, ptr %5, i64 56
  %9 = load ptr, ptr %8, align 8, !tbaa !29
  %10 = load ptr, ptr %9, align 8, !tbaa !30
  %11 = tail call ptr @ff_get_video_buffer(ptr noundef %10, i32 noundef %1, i32 noundef %2) #4
  %.not = icmp eq ptr %11, null
  br i1 %.not, label %.loopexit, label %.preheader

.preheader:                                       ; preds = %3
  %12 = getelementptr inbounds nuw i8, ptr %11, i64 64
  %13 = add i32 %2, -1
  br label %14

14:                                               ; preds = %.preheader, %31
  %indvars.iv = phi i64 [ 0, %.preheader ], [ %indvars.iv.next, %31 ]
  %15 = trunc i64 %indvars.iv to i32
  %16 = add i32 %15, -1
  %or.cond = icmp ult i32 %16, 2
  br i1 %or.cond, label %17, label %19

17:                                               ; preds = %14
  %18 = load i32, ptr %7, align 4, !tbaa !32
  br label %19

19:                                               ; preds = %14, %17
  %20 = phi i32 [ %18, %17 ], [ 0, %14 ]
  %21 = getelementptr inbounds nuw [8 x ptr], ptr %11, i64 0, i64 %indvars.iv
  %22 = load ptr, ptr %21, align 8, !tbaa !34
  %.not32 = icmp eq ptr %22, null
  br i1 %.not32, label %31, label %23

23:                                               ; preds = %19
  %24 = ashr i32 %13, %20
  %25 = getelementptr inbounds nuw [8 x i32], ptr %12, i64 0, i64 %indvars.iv
  %26 = load i32, ptr %25, align 4, !tbaa !35
  %27 = mul nsw i32 %26, %24
  %28 = sext i32 %27 to i64
  %29 = getelementptr inbounds i8, ptr %22, i64 %28
  store ptr %29, ptr %21, align 8, !tbaa !34
  %30 = sub nsw i32 0, %26
  store i32 %30, ptr %25, align 4, !tbaa !35
  br label %31

31:                                               ; preds = %23, %19
  %indvars.iv.next = add nuw nsw i64 %indvars.iv, 1
  %exitcond.not = icmp eq i64 %indvars.iv.next, 4
  br i1 %exitcond.not, label %.loopexit, label %14, !llvm.loop !36

.loopexit:                                        ; preds = %31, %3
  ret ptr %11
}